; Function Attrs: mustprogress uwtable
define void @_ZN16SampleEditPlugin17mouseReleaseEventEP11QMouseEventR9MeshModelP6GLArea(ptr nocapture noundef nonnull writeonly align 8 dereferenceable(132) %0, ptr nocapture noundef readonly %1, ptr nocapture noundef nonnull readnone align 8 dereferenceable(1288) %2, ptr noundef nonnull %3) unnamed_addr #12 align 2 {
  tail call void @_ZN7QWidget6updateEv(ptr noundef nonnull align 8 dereferenceable(48) %3)
  %5 = getelementptr inbounds i8, ptr %1, i64 32
  %6 = load double, ptr %5, align 8
  %7 = fcmp ult double %6, 0.000000e+00
  br i1 %7, label %11, label %8

8:                                                ; preds = %4
  %9 = fadd double %6, 5.000000e-01
  %10 = fptosi double %9 to i32
  br label %_Z6qRoundd.exit.i.i

11:                                               ; preds = %4
  %12 = fadd double %6, -1.000000e+00
  %13 = fptosi double %12 to i32
  %14 = sitofp i32 %13 to double
  %15 = fsub double %6, %14
  %16 = fadd double %15, 5.000000e-01
  %17 = fptosi double %16 to i32
  %18 = add nsw i32 %17, %13
  br label %_Z6qRoundd.exit.i.i

_Z6qRoundd.exit.i.i:                              ; preds = %11, %8
  %19 = phi i32 [ %10, %8 ], [ %18, %11 ]
  %20 = getelementptr inbounds i8, ptr %1, i64 40
  %21 = load double, ptr %20, align 8
  %22 = fcmp ult double %21, 0.000000e+00
  br i1 %22, label %26, label %23

23:                                               ; preds = %_Z6qRoundd.exit.i.i
  %24 = fadd double %21, 5.000000e-01
  %25 = fptosi double %24 to i32
  br label %_ZNK11QMouseEvent3posEv.exit

26:                                               ; preds = %_Z6qRoundd.exit.i.i
  %27 = fadd double %21, -1.000000e+00
  %28 = fptosi double %27 to i32
  %29 = sitofp i32 %28 to double
  %30 = fsub double %21, %29
  %31 = fadd double %30, 5.000000e-01
  %32 = fptosi double %31 to i32
  %33 = add nsw i32 %32, %28
  br label %_ZNK11QMouseEvent3posEv.exit

_ZNK11QMouseEvent3posEv.exit:                     ; preds = %23, %26
  %34 = phi i32 [ %25, %23 ], [ %33, %26 ]
  %35 = getelementptr inbounds i8, ptr %3, i64 16
  %36 = load ptr, ptr %35, align 8
  %37 = getelementptr inbounds i8, ptr %36, i64 32
  %38 = load ptr, ptr %37, align 8
  %39 = tail call noundef i32 %38(ptr noundef nonnull align 8 dereferenceable(24) %35, i32 noundef 11)
  %40 = mul nsw i32 %39, %19
  %41 = sitofp i32 %40 to float
  %42 = getelementptr inbounds i8, ptr %3, i64 40
  %43 = load ptr, ptr %42, align 8
  %44 = getelementptr inbounds i8, ptr %43, i64 32
  %45 = load i32, ptr %44, align 4
  %46 = getelementptr inbounds i8, ptr %43, i64 24
  %47 = load i32, ptr %46, align 4
  %48 = add i32 %45, 1
  %49 = add i32 %34, %47
  %50 = sub i32 %48, %49
  %51 = load ptr, ptr %35, align 8
  %52 = getelementptr inbounds i8, ptr %51, i64 32
  %53 = load ptr, ptr %52, align 8
  %54 = tail call noundef i32 %53(ptr noundef nonnull align 8 dereferenceable(24) %35, i32 noundef 11)
  %55 = mul nsw i32 %54, %50
  %56 = sitofp i32 %55 to float
  %57 = fptosi float %41 to i32
  %58 = fptosi float %56 to i32
  %59 = getelementptr inbounds i8, ptr %0, i64 32
  %.sroa.2.0.insert.ext = zext i32 %58 to i64
  %.sroa.2.0.insert.shift = shl nuw i64 %.sroa.2.0.insert.ext, 32
  %.sroa.0.0.insert.ext = zext i32 %57 to i64
  %.sroa.0.0.insert.insert = or disjoint i64 %.sroa.2.0.insert.shift, %.sroa.0.0.insert.ext
  store i64 %.sroa.0.0.insert.insert, ptr %59, align 8
  %60 = getelementptr inbounds i8, ptr %0, i64 56
  store i8 1, ptr %60, align 8
  %61 = getelementptr inbounds i8, ptr %0, i64 64
  %62 = getelementptr inbounds i8, ptr %0, i64 128
  store i32 0, ptr %62, align 8
  tail call void @llvm.memset.p0.i64(ptr noundef nonnull align 8 dereferenceable(16) %61, i8 0, i64 16, i1 false)
  ret void
}